; Function Attrs: mustprogress nounwind uwtable
define noundef nonnull align 8 dereferenceable(20) ptr @_ZN4pkpy7SStreamlsERKNS_3StrE(ptr noundef nonnull returned align 8 dereferenceable(20) %0, ptr nocapture noundef nonnull readonly align 8 dereferenceable(32) %1) local_unnamed_addr #4 align 2 {
  %3 = getelementptr inbounds i8, ptr %1, i64 8
  %4 = load ptr, ptr %3, align 8
  %5 = load i32, ptr %1, align 8
  %6 = sext i32 %5 to i64
  %7 = getelementptr inbounds i8, ptr %4, i64 %6
  %.not6.i = icmp eq i32 %5, 0
  br i1 %.not6.i, label %_ZN4pkpy10pod_vectorIcLi2EE6extendEPKcS3_.exit, label %.lr.ph.i

.lr.ph.i:                                         ; preds = %2
  %8 = getelementptr inbounds i8, ptr %0, i64 4
  %9 = getelementptr inbounds i8, ptr %0, i64 8
  br label %10

10:                                               ; preds = %_ZN4pkpy10pod_vectorIcLi2EE9push_backIRKcEEvOT_.exit.i, %.lr.ph.i
  %.07.i = phi ptr [ %4, %.lr.ph.i ], [ %28, %_ZN4pkpy10pod_vectorIcLi2EE9push_backIRKcEEvOT_.exit.i ]
  %11 = load i32, ptr %0, align 8
  %12 = load i32, ptr %8, align 4
  %13 = icmp eq i32 %11, %12
  br i1 %13, label %14, label %_ZN4pkpy10pod_vectorIcLi2EE9push_backIRKcEEvOT_.exit.i

14:                                               ; preds = %10
  %15 = shl nsw i32 %11, 1
  %.not.i.i.i = icmp slt i32 %11, %15
  br i1 %.not.i.i.i, label %16, label %_ZN4pkpy10pod_vectorIcLi2EE9push_backIRKcEEvOT_.exit.i

16:                                               ; preds = %14
  store i32 %15, ptr %8, align 4
  %17 = load ptr, ptr %9, align 8
  %18 = sext i32 %15 to i64
  %19 = tail call noundef ptr @_ZN4pkpy12pool64_allocEm(i64 noundef %18) #23
  store ptr %19, ptr %9, align 8
  %.not6.i.i.i = icmp eq ptr %17, null
  %.pre2.i.i = load i32, ptr %0, align 8
  br i1 %.not6.i.i.i, label %_ZN4pkpy10pod_vectorIcLi2EE9push_backIRKcEEvOT_.exit.i, label %20

20:                                               ; preds = %16
  %21 = sext i32 %.pre2.i.i to i64
  tail call void @llvm.memcpy.p0.p0.i64(ptr align 1 %19, ptr nonnull align 1 %17, i64 %21, i1 false)
  tail call void @_ZN4pkpy14pool64_deallocEPv(ptr noundef nonnull %17) #23
  %.pre.i.i = load i32, ptr %0, align 8
  br label %_ZN4pkpy10pod_vectorIcLi2EE9push_backIRKcEEvOT_.exit.i

_ZN4pkpy10pod_vectorIcLi2EE9push_backIRKcEEvOT_.exit.i: ; preds = %20, %16, %14, %10
  %22 = phi i32 [ %.pre.i.i, %20 ], [ %.pre2.i.i, %16 ], [ %11, %14 ], [ %11, %10 ]
  %23 = load i8, ptr %.07.i, align 1
  %24 = load ptr, ptr %9, align 8
  %25 = add nsw i32 %22, 1
  store i32 %25, ptr %0, align 8
  %26 = sext i32 %22 to i64
  %27 = getelementptr inbounds i8, ptr %24, i64 %26
  store i8 %23, ptr %27, align 1
  %28 = getelementptr inbounds i8, ptr %.07.i, i64 1
  %.not.i = icmp eq ptr %28, %7
  br i1 %.not.i, label %_ZN4pkpy10pod_vectorIcLi2EE6extendEPKcS3_.exit, label %10, !llvm.loop !51

_ZN4pkpy10pod_vectorIcLi2EE6extendEPKcS3_.exit:   ; preds = %_ZN4pkpy10pod_vectorIcLi2EE9push_backIRKcEEvOT_.exit.i, %2
  ret ptr %0
}